; Function Attrs: mustprogress uwtable
define dso_local void @_ZN5vcpkg30FullyBufferedDiagnosticContext8statuslnERKNS_15LocalizedStringE(ptr noundef nonnull align 8 dereferenceable(32) %0, ptr noundef nonnull align 8 dereferenceable(32) %1) unnamed_addr #0 align 2 {
  %3 = getelementptr inbounds nuw i8, ptr %0, i64 16
  %4 = load ptr, ptr %3, align 8, !tbaa !72
  %5 = getelementptr inbounds nuw i8, ptr %0, i64 24
  %6 = load ptr, ptr %5, align 8, !tbaa !75
  %.not.i = icmp eq ptr %4, %6
  br i1 %.not.i, label %10, label %7

7:                                                ; preds = %2
  tail call void @_ZN5vcpkg11MessageLineC1ERKNS_15LocalizedStringE(ptr noundef nonnull align 8 dereferenceable(24) %4, ptr noundef nonnull align 8 dereferenceable(32) %1)
  %8 = load ptr, ptr %3, align 8, !tbaa !72
  %9 = getelementptr inbounds nuw i8, ptr %8, i64 24
  store ptr %9, ptr %3, align 8, !tbaa !72
  br label %_ZNSt6vectorIN5vcpkg11MessageLineESaIS1_EE12emplace_backIJRKNS0_15LocalizedStringEEEERS1_DpOT_.exit

10:                                               ; preds = %2
  %11 = getelementptr inbounds nuw i8, ptr %0, i64 8
  tail call void @_ZNSt6vectorIN5vcpkg11MessageLineESaIS1_EE17_M_realloc_insertIJRKNS0_15LocalizedStringEEEEvN9__gnu_cxx17__normal_iteratorIPS1_S3_EEDpOT_(ptr noundef nonnull align 8 dereferenceable(24) %11, ptr %4, ptr noundef nonnull align 8 dereferenceable(32) %1)
  br label %_ZNSt6vectorIN5vcpkg11MessageLineESaIS1_EE12emplace_backIJRKNS0_15LocalizedStringEEEERS1_DpOT_.exit

_ZNSt6vectorIN5vcpkg11MessageLineESaIS1_EE12emplace_backIJRKNS0_15LocalizedStringEEEERS1_DpOT_.exit: ; preds = %7, %10
  ret void
}